target datalayout = "e-m:e-p270:32:32-p271:32:32-p272:64:64-i64:64-i128:128-f80:128-n8:16:32:64-S128"
target triple = "x86_64-unknown-linux-gnu"

@stdout = external global ptr, align 8

; Function Attrs: mustprogress uwtable
define dso_local noundef i32 @_ZN2EA4StdC12SprintfLocal18PlatformLogWriter8EPKcmPvNS0_18WriteFunctionStateE(ptr noalias noundef %pData, i64 noundef %nCount, ptr noalias noundef %pContext8, i32 noundef %0) #2 {
entry:
  %pData.addr = alloca ptr, align 8
  %nCount.addr = alloca i64, align 8
  %pContext8.addr = alloca ptr, align 8
  %.addr = alloca i32, align 4
  %i = alloca i64, align 8
  %iEnd = alloca i64, align 8
  %charIndex = alloca i64, align 8
  %buffer = alloca [512 x i8], align 16
  store ptr %pData, ptr %pData.addr, align 8
  store i64 %nCount, ptr %nCount.addr, align 8
  store ptr %pContext8, ptr %pContext8.addr, align 8
  store i32 %0, ptr %.addr, align 4
  %1 = load i64, ptr %nCount.addr, align 8
  %tobool = icmp ne i64 %1, 0
  br i1 %tobool, label %if.then, label %if.end10

if.then:                                          ; preds = %entry
  %2 = load ptr, ptr %pData.addr, align 8
  %3 = load i64, ptr %nCount.addr, align 8
  %arrayidx = getelementptr inbounds i8, ptr %2, i64 %3
  %4 = load i8, ptr %arrayidx, align 1
  %conv = sext i8 %4 to i32
  %cmp = icmp eq i32 %conv, 0
  br i1 %cmp, label %if.then1, label %if.else

if.then1:                                         ; preds = %if.then
  %5 = load ptr, ptr %pData.addr, align 8
  %6 = load ptr, ptr @stdout, align 8
  %call = call i32 @fputs(ptr noundef %5, ptr noundef %6)
  br label %if.end

if.else:                                          ; preds = %if.then
  store i64 0, ptr %charIndex, align 8
  br label %while.cond

while.cond:                                       ; preds = %for.end, %if.else
  %7 = load i64, ptr %charIndex, align 8
  %8 = load i64, ptr %nCount.addr, align 8
  %cmp2 = icmp ult i64 %7, %8
  br i1 %cmp2, label %while.body, label %while.end

while.body:                                       ; preds = %while.cond
  store i64 0, ptr %i, align 8
  store i64 511, ptr %iEnd, align 8
  br label %for.cond

for.cond:                                         ; preds = %for.inc, %while.body
  %9 = load i64, ptr %i, align 8
  %10 = load i64, ptr %iEnd, align 8
  %cmp3 = icmp ult i64 %9, %10
  br i1 %cmp3, label %land.rhs, label %land.end

land.rhs:                                         ; preds = %for.cond
  %11 = load i64, ptr %charIndex, align 8
  %12 = load i64, ptr %nCount.addr, align 8
  %cmp4 = icmp ult i64 %11, %12
  br label %land.end

land.end:                                         ; preds = %land.rhs, %for.cond
  %13 = phi i1 [ false, %for.cond ], [ %cmp4, %land.rhs ]
  br i1 %13, label %for.body, label %for.end

for.body:                                         ; preds = %land.end
  %14 = load ptr, ptr %pData.addr, align 8
  %15 = load i64, ptr %charIndex, align 8
  %arrayidx5 = getelementptr inbounds i8, ptr %14, i64 %15
  %16 = load i8, ptr %arrayidx5, align 1
  %17 = load i64, ptr %i, align 8
  %arrayidx6 = getelementptr inbounds [512 x i8], ptr %buffer, i64 0, i64 %17
  store i8 %16, ptr %arrayidx6, align 1
  br label %for.inc

for.inc:                                          ; preds = %for.body
  %18 = load i64, ptr %i, align 8
  %inc = add i64 %18, 1
  store i64 %inc, ptr %i, align 8
  %19 = load i64, ptr %charIndex, align 8
  %inc7 = add i64 %19, 1
  store i64 %inc7, ptr %charIndex, align 8
  br label %for.cond, !llvm.loop !7

for.end:                                          ; preds = %land.end
  %20 = load i64, ptr %i, align 8
  %arrayidx8 = getelementptr inbounds [512 x i8], ptr %buffer, i64 0, i64 %20
  store i8 0, ptr %arrayidx8, align 1
  %arraydecay = getelementptr inbounds [512 x i8], ptr %buffer, i64 0, i64 0
  %21 = load ptr, ptr @stdout, align 8
  %call9 = call i32 @fputs(ptr noundef %arraydecay, ptr noundef %21)
  br label %while.cond, !llvm.loop !8

while.end:                                        ; preds = %while.cond
  br label %if.end

if.end:                                           ; preds = %while.end, %if.then1
  br label %if.end10

if.end10:                                         ; preds = %if.end, %entry
  %22 = load i64, ptr %nCount.addr, align 8
  %conv11 = trunc i64 %22 to i32
  ret i32 %conv11
}