; Function Attrs: mustprogress nofree nounwind uwtable
define dso_local noundef i32 @_ZN2EA4StdC12SprintfLocal18PlatformLogWriter8EPKcmPvNS0_18WriteFunctionStateE(ptr noalias noundef readonly captures(none) %pData, i64 noundef %nCount, ptr noalias noundef readnone captures(none) %pContext8, i32 noundef %0) local_unnamed_addr #3 {
entry:
  %buffer = alloca [512 x i8], align 16
  %tobool.not = icmp eq i64 %nCount, 0
  br i1 %tobool.not, label %if.end10, label %if.then

if.then:                                          ; preds = %entry
  %arrayidx = getelementptr inbounds i8, ptr %pData, i64 %nCount
  %1 = load i8, ptr %arrayidx, align 1
  %cmp = icmp eq i8 %1, 0
  br i1 %cmp, label %if.then1, label %for.cond.preheader

if.then1:                                         ; preds = %if.then
  %2 = load ptr, ptr @stdout, align 8
  %call = tail call i32 @fputs(ptr noundef nonnull %pData, ptr noundef %2)
  br label %if.end10

for.cond.preheader:                               ; preds = %if.then, %for.cond.preheader
  %charIndex.015 = phi i64 [ %7, %for.cond.preheader ], [ 0, %if.then ]
  %scevgep = getelementptr i8, ptr %pData, i64 %charIndex.015
  %3 = add nuw i64 %charIndex.015, 1
  %umax = tail call i64 @llvm.umax.i64(i64 %nCount, i64 %3)
  %4 = xor i64 %charIndex.015, -1
  %5 = add i64 %umax, %4
  %umin = tail call i64 @llvm.umin.i64(i64 %5, i64 510)
  %6 = add nuw nsw i64 %umin, 1
  call void @llvm.memcpy.p0.p0.i64(ptr noundef nonnull align 16 dereferenceable(1) %buffer, ptr noundef nonnull align 1 dereferenceable(1) %scevgep, i64 %6, i1 false)
  %7 = add i64 %3, %umin
  %arrayidx8 = getelementptr inbounds nuw [512 x i8], ptr %buffer, i64 0, i64 %6
  store i8 0, ptr %arrayidx8, align 1
  %8 = load ptr, ptr @stdout, align 8
  %call9 = call i32 @fputs(ptr noundef nonnull %buffer, ptr noundef %8)
  %cmp2 = icmp ult i64 %7, %nCount
  br i1 %cmp2, label %for.cond.preheader, label %if.end10, !llvm.loop !7

if.end10:                                         ; preds = %for.cond.preheader, %if.then1, %entry
  %conv11 = trunc i64 %nCount to i32
  ret i32 %conv11
}